; Function Attrs: nofree norecurse nosync nounwind memory(argmem: readwrite) uwtable
define internal void @jpeg_undifference3(ptr readnone captures(none) %0, i32 %1, ptr noundef readonly captures(none) %2, ptr noundef readonly captures(none) %3, ptr noundef writeonly captures(none) initializes((0, 4)) %4, i32 noundef %5) #2 {
  %7 = load i32, ptr %3, align 4, !tbaa !52
  %8 = load i32, ptr %2, align 4, !tbaa !52
  %9 = add nsw i32 %8, %7
  %10 = and i32 %9, 65535
  store i32 %10, ptr %4, align 4, !tbaa !52
  %11 = add i32 %5, -1
  %.not18 = icmp eq i32 %11, 0
  br i1 %.not18, label %._crit_edge, label %.lr.ph

.lr.ph:                                           ; preds = %6, %.lr.ph
  %12 = phi i32 [ %17, %.lr.ph ], [ %11, %6 ]
  %.pn1622 = phi ptr [ %.0, %.lr.ph ], [ %2, %6 ]
  %.01121 = phi i32 [ %13, %.lr.ph ], [ %7, %6 ]
  %.pn1720 = phi ptr [ %.013, %.lr.ph ], [ %4, %6 ]
  %.pn19 = phi ptr [ %.014, %.lr.ph ], [ %3, %6 ]
  %.013 = getelementptr inbounds nuw i8, ptr %.pn1720, i64 4
  %.0 = getelementptr inbounds nuw i8, ptr %.pn1622, i64 4
  %.014 = getelementptr inbounds nuw i8, ptr %.pn19, i64 4
  %13 = load i32, ptr %.014, align 4, !tbaa !52
  %14 = load i32, ptr %.0, align 4, !tbaa !52
  %15 = add nsw i32 %14, %.01121
  %16 = and i32 %15, 65535
  store i32 %16, ptr %.013, align 4, !tbaa !52
  %17 = add i32 %12, -1
  %.not = icmp eq i32 %17, 0
  br i1 %.not, label %._crit_edge, label %.lr.ph, !llvm.loop !58

._crit_edge:                                      ; preds = %.lr.ph, %6
  ret void
}